target datalayout = "e-m:e-p270:32:32-p271:32:32-p272:64:64-i64:64-i128:128-f80:128-n8:16:32:64-S128"
target triple = "x86_64-pc-linux-gnu"

%struct.RelationData = type { %struct.RelFileLocator, ptr, i32, i32, i8, i8, i8, i8, i8, i32, i32, i32, i32, ptr, ptr, i32, %struct.LockInfoData, ptr, ptr, ptr, ptr, ptr, i8, ptr, ptr, ptr, ptr, ptr, ptr, i32, ptr, i8, ptr, ptr, i32, i8, i32, ptr, i8, ptr, ptr, ptr, ptr, ptr, ptr, ptr, i32, ptr, ptr, ptr, ptr, ptr, ptr, ptr, ptr, ptr, ptr, ptr, ptr, ptr, ptr, ptr, ptr, ptr, ptr, ptr, i32, i8, ptr }
%struct.RelFileLocator = type { i32, i32, i32 }
%struct.LockInfoData = type { %struct.LockRelId }
%struct.LockRelId = type { i32, i32 }
%struct.HeapTupleData = type { i32, %struct.ItemPointerData, i32, ptr }
%struct.ItemPointerData = type { %struct.BlockIdData, i16 }
%struct.BlockIdData = type { i16, i16 }

@.str.1 = private unnamed_addr constant [12 x i8] c"tablesync.c\00", align 1
@.str.3 = private unnamed_addr constant [44 x i8] c"cache lookup failed for subscription oid %u\00", align 1
@__func__.UpdateTwoPhaseState = private unnamed_addr constant [20 x i8] c"UpdateTwoPhaseState\00", align 1

; Function Attrs: inlinehint nounwind uwtable
define internal i64 @CharGetDatum(i8 noundef signext %0) #4 {
  %2 = alloca i8, align 1
  store i8 %0, ptr %2, align 1
  %3 = load i8, ptr %2, align 1
  %4 = sext i8 %3 to i64
  ret i64 %4
}

; Function Attrs: inlinehint nounwind uwtable
define internal i64 @ObjectIdGetDatum(i32 noundef %0) #4 {
  %2 = alloca i32, align 4
  store i32 %0, ptr %2, align 4
  %3 = load i32, ptr %2, align 4
  %4 = zext i32 %3 to i64
  ret i64 %4
}

; Function Attrs: nounwind uwtable
define dso_local void @UpdateTwoPhaseState(i32 noundef %0, i8 noundef signext %1) #0 {
  %3 = alloca i32, align 4
  %4 = alloca i8, align 1
  %5 = alloca ptr, align 8
  %6 = alloca ptr, align 8
  %7 = alloca [18 x i8], align 16
  %8 = alloca [18 x i8], align 16
  %9 = alloca [18 x i64], align 16
  store i32 %0, ptr %3, align 4
  store i8 %1, ptr %4, align 1
  call void @llvm.lifetime.start.p0(i64 8, ptr %5) #12
  call void @llvm.lifetime.start.p0(i64 8, ptr %6) #12
  call void @llvm.lifetime.start.p0(i64 18, ptr %7) #12
  call void @llvm.lifetime.start.p0(i64 18, ptr %8) #12
  call void @llvm.lifetime.start.p0(i64 144, ptr %9) #12
  %10 = call ptr @table_open(i32 noundef 6100, i32 noundef 3)
  store ptr %10, ptr %5, align 8
  %11 = load i32, ptr %3, align 4
  %12 = call i64 @ObjectIdGetDatum(i32 noundef %11)
  %13 = call ptr @SearchSysCacheCopy(i32 noundef 67, i64 noundef %12, i64 noundef 0, i64 noundef 0, i64 noundef 0)
  store ptr %13, ptr %6, align 8
  %14 = load ptr, ptr %6, align 8
  %15 = icmp ne ptr %14, null
  br i1 %15, label %28, label %16

16:                                               ; preds = %2
  br label %17

17:                                               ; preds = %16
  br i1 true, label %18, label %20

18:                                               ; preds = %17
  %19 = call zeroext i1 @errstart_cold(i32 noundef 21, ptr noundef null) #11
  br i1 %19, label %22, label %25

20:                                               ; preds = %17
  %21 = call zeroext i1 @errstart(i32 noundef 21, ptr noundef null)
  br i1 %21, label %22, label %25

22:                                               ; preds = %20, %18
  %23 = load i32, ptr %3, align 4
  %24 = call i32 (ptr, ...) @errmsg_internal(ptr noundef @.str.3, i32 noundef %23)
  call void @errfinish(ptr noundef @.str.1, i32 noundef 1781, ptr noundef @__func__.UpdateTwoPhaseState)
  br label %25

25:                                               ; preds = %22, %20, %18
  unreachable

26:                                               ; No predecessors!
  br label %27

27:                                               ; preds = %26
  br label %28

28:                                               ; preds = %27, %2
  %29 = getelementptr inbounds [18 x i64], ptr %9, i64 0, i64 0
  call void @llvm.memset.p0.i64(ptr align 16 %29, i8 0, i64 144, i1 false)
  %30 = getelementptr inbounds [18 x i8], ptr %7, i64 0, i64 0
  call void @llvm.memset.p0.i64(ptr align 16 %30, i8 0, i64 18, i1 false)
  %31 = getelementptr inbounds [18 x i8], ptr %8, i64 0, i64 0
  call void @llvm.memset.p0.i64(ptr align 16 %31, i8 0, i64 18, i1 false)
  %32 = load i8, ptr %4, align 1
  %33 = call i64 @CharGetDatum(i8 noundef signext %32)
  %34 = getelementptr inbounds [18 x i64], ptr %9, i64 0, i64 8
  store i64 %33, ptr %34, align 16
  %35 = getelementptr inbounds [18 x i8], ptr %8, i64 0, i64 8
  store i8 1, ptr %35, align 8
  %36 = load ptr, ptr %6, align 8
  %37 = load ptr, ptr %5, align 8
  %38 = getelementptr inbounds nuw %struct.RelationData, ptr %37, i32 0, i32 14
  %39 = load ptr, ptr %38, align 8
  %40 = getelementptr inbounds [18 x i64], ptr %9, i64 0, i64 0
  %41 = getelementptr inbounds [18 x i8], ptr %7, i64 0, i64 0
  %42 = getelementptr inbounds [18 x i8], ptr %8, i64 0, i64 0
  %43 = call ptr @heap_modify_tuple(ptr noundef %36, ptr noundef %39, ptr noundef %40, ptr noundef %41, ptr noundef %42)
  store ptr %43, ptr %6, align 8
  %44 = load ptr, ptr %5, align 8
  %45 = load ptr, ptr %6, align 8
  %46 = getelementptr inbounds nuw %struct.HeapTupleData, ptr %45, i32 0, i32 1
  %47 = load ptr, ptr %6, align 8
  call void @CatalogTupleUpdate(ptr noundef %44, ptr noundef %46, ptr noundef %47)
  %48 = load ptr, ptr %6, align 8
  call void @heap_freetuple(ptr noundef %48)
  %49 = load ptr, ptr %5, align 8
  call void @table_close(ptr noundef %49, i32 noundef 3)
  call void @llvm.lifetime.end.p0(i64 144, ptr %9) #12
  call void @llvm.lifetime.end.p0(i64 18, ptr %8) #12
  call void @llvm.lifetime.end.p0(i64 18, ptr %7) #12
  call void @llvm.lifetime.end.p0(i64 8, ptr %6) #12
  call void @llvm.lifetime.end.p0(i64 8, ptr %5) #12
  ret void
}