; Function Attrs: nounwind uwtable
define dso_local void @UpdateTwoPhaseState(i32 noundef %0, i8 noundef signext %1) local_unnamed_addr #1 {
  %3 = alloca [18 x i8], align 16
  %4 = alloca [18 x i8], align 16
  %5 = alloca [18 x i64], align 16
  call void @llvm.lifetime.start.p0(i64 18, ptr nonnull %3) #12
  call void @llvm.lifetime.start.p0(i64 18, ptr nonnull %4) #12
  call void @llvm.lifetime.start.p0(i64 144, ptr nonnull %5) #12
  %6 = tail call ptr @table_open(i32 noundef 6100, i32 noundef 3) #12
  %7 = zext i32 %0 to i64
  %8 = tail call ptr @SearchSysCacheCopy(i32 noundef 67, i64 noundef %7, i64 noundef 0, i64 noundef 0, i64 noundef 0) #12
  %.not = icmp eq ptr %8, null
  br i1 %.not, label %9, label %12

9:                                                ; preds = %2
  %10 = tail call zeroext i1 @errstart_cold(i32 noundef 21, ptr noundef null) #15
  tail call void @llvm.assume(i1 %10)
  %11 = tail call i32 (ptr, ...) @errmsg_internal(ptr noundef nonnull @.str.3, i32 noundef %0) #12
  tail call void @errfinish(ptr noundef nonnull @.str.1, i32 noundef 1781, ptr noundef nonnull @__func__.UpdateTwoPhaseState) #12
  unreachable

12:                                               ; preds = %2
  call void @llvm.memset.p0.i64(ptr noundef nonnull align 16 dereferenceable(144) %5, i8 0, i64 144, i1 false)
  call void @llvm.memset.p0.i64(ptr noundef nonnull align 16 dereferenceable(18) %3, i8 0, i64 18, i1 false)
  call void @llvm.memset.p0.i64(ptr noundef nonnull align 16 dereferenceable(18) %4, i8 0, i64 18, i1 false)
  %13 = sext i8 %1 to i64
  %14 = getelementptr inbounds nuw i8, ptr %5, i64 64
  store i64 %13, ptr %14, align 16
  %15 = getelementptr inbounds nuw i8, ptr %4, i64 8
  store i8 1, ptr %15, align 8
  %16 = getelementptr inbounds nuw i8, ptr %6, i64 64
  %17 = load ptr, ptr %16, align 8
  %18 = call ptr @heap_modify_tuple(ptr noundef nonnull %8, ptr noundef %17, ptr noundef nonnull %5, ptr noundef nonnull %3, ptr noundef nonnull %4) #12
  %19 = getelementptr inbounds nuw i8, ptr %18, i64 4
  call void @CatalogTupleUpdate(ptr noundef %6, ptr noundef nonnull %19, ptr noundef %18) #12
  call void @heap_freetuple(ptr noundef %18) #12
  call void @table_close(ptr noundef %6, i32 noundef 3) #12
  call void @llvm.lifetime.end.p0(i64 144, ptr nonnull %5) #12
  call void @llvm.lifetime.end.p0(i64 18, ptr nonnull %4) #12
  call void @llvm.lifetime.end.p0(i64 18, ptr nonnull %3) #12
  ret void
}